target datalayout = "e-m:e-p270:32:32-p271:32:32-p272:64:64-i64:64-i128:128-f80:128-n8:16:32:64-S128"
target triple = "x86_64-pc-linux-gnu"

%struct.http2_session_data = type { %struct.http2_stream_data, ptr, ptr, ptr, ptr }
%struct.http2_stream_data = type { ptr, ptr, ptr, i32, i32 }

@stderr = external global ptr, align 8
@.str.12 = private unnamed_addr constant [17 x i8] c"%s disconnected\0A\00", align 1

; Function Attrs: nounwind uwtable
define internal void @delete_http2_stream_data(ptr noundef %0) #0 {
  %2 = alloca ptr, align 8
  store ptr %0, ptr %2, align 8, !tbaa !63
  %3 = load ptr, ptr %2, align 8, !tbaa !63
  %4 = getelementptr inbounds nuw %struct.http2_stream_data, ptr %3, i32 0, i32 4
  %5 = load i32, ptr %4, align 4, !tbaa !66
  %6 = icmp ne i32 %5, -1
  br i1 %6, label %7, label %12

7:                                                ; preds = %1
  %8 = load ptr, ptr %2, align 8, !tbaa !63
  %9 = getelementptr inbounds nuw %struct.http2_stream_data, ptr %8, i32 0, i32 4
  %10 = load i32, ptr %9, align 4, !tbaa !66
  %11 = call i32 @close(i32 noundef %10)
  br label %12

12:                                               ; preds = %7, %1
  %13 = load ptr, ptr %2, align 8, !tbaa !63
  %14 = getelementptr inbounds nuw %struct.http2_stream_data, ptr %13, i32 0, i32 2
  %15 = load ptr, ptr %14, align 8, !tbaa !67
  call void @free(ptr noundef %15) #11
  %16 = load ptr, ptr %2, align 8, !tbaa !63
  call void @free(ptr noundef %16) #11
  ret void
}

; Function Attrs: nounwind uwtable
define internal void @delete_http2_session_data(ptr noundef %0) #0 {
  %2 = alloca ptr, align 8
  %3 = alloca ptr, align 8
  %4 = alloca ptr, align 8
  %5 = alloca ptr, align 8
  store ptr %0, ptr %2, align 8, !tbaa !44
  call void @llvm.lifetime.start.p0(i64 8, ptr %3) #11
  call void @llvm.lifetime.start.p0(i64 8, ptr %4) #11
  %6 = load ptr, ptr %2, align 8, !tbaa !44
  %7 = getelementptr inbounds nuw %struct.http2_session_data, ptr %6, i32 0, i32 1
  %8 = load ptr, ptr %7, align 8, !tbaa !46
  %9 = call ptr @bufferevent_openssl_get_ssl(ptr noundef %8)
  store ptr %9, ptr %4, align 8, !tbaa !40
  %10 = load ptr, ptr @stderr, align 8, !tbaa !12
  %11 = load ptr, ptr %2, align 8, !tbaa !44
  %12 = getelementptr inbounds nuw %struct.http2_session_data, ptr %11, i32 0, i32 4
  %13 = load ptr, ptr %12, align 8, !tbaa !53
  %14 = call i32 (ptr, ptr, ...) @fprintf(ptr noundef %10, ptr noundef @.str.12, ptr noundef %13) #11
  %15 = load ptr, ptr %4, align 8, !tbaa !40
  %16 = icmp ne ptr %15, null
  br i1 %16, label %17, label %20

17:                                               ; preds = %1
  %18 = load ptr, ptr %4, align 8, !tbaa !40
  %19 = call i32 @SSL_shutdown(ptr noundef %18)
  br label %20

20:                                               ; preds = %17, %1
  %21 = load ptr, ptr %2, align 8, !tbaa !44
  %22 = getelementptr inbounds nuw %struct.http2_session_data, ptr %21, i32 0, i32 1
  %23 = load ptr, ptr %22, align 8, !tbaa !46
  call void @bufferevent_free(ptr noundef %23)
  %24 = load ptr, ptr %2, align 8, !tbaa !44
  %25 = getelementptr inbounds nuw %struct.http2_session_data, ptr %24, i32 0, i32 3
  %26 = load ptr, ptr %25, align 8, !tbaa !55
  call void @nghttp2_session_del(ptr noundef %26)
  %27 = load ptr, ptr %2, align 8, !tbaa !44
  %28 = getelementptr inbounds nuw %struct.http2_session_data, ptr %27, i32 0, i32 0
  %29 = getelementptr inbounds nuw %struct.http2_stream_data, ptr %28, i32 0, i32 1
  %30 = load ptr, ptr %29, align 8, !tbaa !62
  store ptr %30, ptr %3, align 8, !tbaa !63
  br label %31

31:                                               ; preds = %34, %20
  %32 = load ptr, ptr %3, align 8, !tbaa !63
  %33 = icmp ne ptr %32, null
  br i1 %33, label %34, label %40

34:                                               ; preds = %31
  call void @llvm.lifetime.start.p0(i64 8, ptr %5) #11
  %35 = load ptr, ptr %3, align 8, !tbaa !63
  %36 = getelementptr inbounds nuw %struct.http2_stream_data, ptr %35, i32 0, i32 1
  %37 = load ptr, ptr %36, align 8, !tbaa !64
  store ptr %37, ptr %5, align 8, !tbaa !63
  %38 = load ptr, ptr %3, align 8, !tbaa !63
  call void @delete_http2_stream_data(ptr noundef %38)
  %39 = load ptr, ptr %5, align 8, !tbaa !63
  store ptr %39, ptr %3, align 8, !tbaa !63
  call void @llvm.lifetime.end.p0(i64 8, ptr %5) #11
  br label %31, !llvm.loop !65

40:                                               ; preds = %31
  %41 = load ptr, ptr %2, align 8, !tbaa !44
  %42 = getelementptr inbounds nuw %struct.http2_session_data, ptr %41, i32 0, i32 4
  %43 = load ptr, ptr %42, align 8, !tbaa !53
  call void @free(ptr noundef %43) #11
  %44 = load ptr, ptr %2, align 8, !tbaa !44
  call void @free(ptr noundef %44) #11
  call void @llvm.lifetime.end.p0(i64 8, ptr %4) #11
  call void @llvm.lifetime.end.p0(i64 8, ptr %3) #11
  ret void
}