; Function Attrs: cold nounwind uwtable
define internal fastcc void @delete_http2_session_data(ptr noundef captures(none) %0) unnamed_addr #8 {
  %2 = getelementptr inbounds nuw i8, ptr %0, i64 32
  %3 = load ptr, ptr %2, align 8, !tbaa !36
  %4 = tail call ptr @bufferevent_openssl_get_ssl(ptr noundef %3) #21
  %5 = load ptr, ptr @stderr, align 8, !tbaa !4
  %6 = getelementptr inbounds nuw i8, ptr %0, i64 56
  %7 = load ptr, ptr %6, align 8, !tbaa !37
  %8 = tail call i32 (ptr, ptr, ...) @fprintf(ptr noundef %5, ptr noundef nonnull @.str.12, ptr noundef %7) #25
  %.not = icmp eq ptr %4, null
  br i1 %.not, label %11, label %9

9:                                                ; preds = %1
  %10 = tail call i32 @SSL_shutdown(ptr noundef nonnull %4) #21
  br label %11

11:                                               ; preds = %9, %1
  %12 = load ptr, ptr %2, align 8, !tbaa !36
  tail call void @bufferevent_free(ptr noundef %12) #21
  %13 = getelementptr inbounds nuw i8, ptr %0, i64 48
  %14 = load ptr, ptr %13, align 8, !tbaa !38
  tail call void @nghttp2_session_del(ptr noundef %14) #21
  %15 = getelementptr inbounds nuw i8, ptr %0, i64 8
  %16 = load ptr, ptr %15, align 8, !tbaa !41
  %.not1415 = icmp eq ptr %16, null
  br i1 %.not1415, label %._crit_edge, label %.lr.ph

.lr.ph:                                           ; preds = %11, %delete_http2_stream_data.exit
  %.016 = phi ptr [ %18, %delete_http2_stream_data.exit ], [ %16, %11 ]
  %17 = getelementptr inbounds nuw i8, ptr %.016, i64 8
  %18 = load ptr, ptr %17, align 8, !tbaa !42
  %19 = getelementptr inbounds nuw i8, ptr %.016, i64 28
  %20 = load i32, ptr %19, align 4, !tbaa !43
  %.not.i = icmp eq i32 %20, -1
  br i1 %.not.i, label %delete_http2_stream_data.exit, label %21

21:                                               ; preds = %.lr.ph
  %22 = tail call i32 @close(i32 noundef %20) #21
  br label %delete_http2_stream_data.exit

delete_http2_stream_data.exit:                    ; preds = %.lr.ph, %21
  %23 = getelementptr inbounds nuw i8, ptr %.016, i64 16
  %24 = load ptr, ptr %23, align 8, !tbaa !44
  tail call void @free(ptr noundef %24) #21
  tail call void @free(ptr noundef nonnull %.016) #21
  %.not14 = icmp eq ptr %18, null
  br i1 %.not14, label %._crit_edge, label %.lr.ph, !llvm.loop !45

._crit_edge:                                      ; preds = %delete_http2_stream_data.exit, %11
  %25 = load ptr, ptr %6, align 8, !tbaa !37
  tail call void @free(ptr noundef %25) #21
  tail call void @free(ptr noundef %0) #21
  ret void
}